target datalayout = "e-m:e-p270:32:32-p271:32:32-p272:64:64-i64:64-i128:128-f80:128-n8:16:32:64-S128"
target triple = "x86_64-pc-linux-gnu"

%struct.darktable_t = type { %struct.dt_codepath_t, i32, i32, ptr, ptr, ptr, ptr, ptr, ptr, ptr, ptr, ptr, ptr, ptr, ptr, ptr, ptr, ptr, ptr, ptr, ptr, ptr, ptr, ptr, ptr, ptr, ptr, ptr, ptr, ptr, [64 x %struct.dt_pthread_mutex_t], %struct.dt_pthread_mutex_t, %struct.dt_pthread_mutex_t, %struct.dt_pthread_mutex_t, %struct.dt_pthread_mutex_t, %struct.dt_pthread_mutex_t, ptr, ptr, ptr, ptr, ptr, ptr, ptr, ptr, ptr, ptr, ptr, ptr, ptr, %struct.dt_lua_state_t, ptr, double, ptr, i32, [47 x i32], i32, i32, ptr, ptr, %struct.dt_sys_resources_t, %struct.dt_backthumb_t, %struct.dt_gimp_t }
%struct.dt_codepath_t = type { i8, [3 x i8] }
%struct.dt_pthread_mutex_t = type { %union.pthread_mutex_t }
%union.pthread_mutex_t = type { %struct.__pthread_mutex_s }
%struct.__pthread_mutex_s = type { i32, i32, i32, i32, i32, i16, i16, %struct.__pthread_internal_list }
%struct.__pthread_internal_list = type { ptr, ptr }
%struct.dt_lua_state_t = type { i32 }
%struct.dt_sys_resources_t = type { i64, i64, ptr, ptr, i32 }
%struct.dt_backthumb_t = type { double, double, i32, i32, i32, i32 }
%struct.dt_gimp_t = type { i32, ptr, ptr, i32, i32 }
%struct.dt_selection_t = type { ptr, i32 }

@darktable = external global %struct.darktable_t, align 8
@.str.3 = private unnamed_addr constant [120 x i8] c"generated/home/dtcxzyw/WorkSpace/Projects/compilers/llvm-opt-benchmark/bench/darktable/darktable/src/common/selection.c\00", align 1
@.str.5 = private unnamed_addr constant [38 x i8] c"[sql] %s:%d, function %s(): exec \22%s\22\00", align 1
@.str.6 = private unnamed_addr constant [72 x i8] c"INSERT INTO memory.tmp_selection SELECT imgid FROM main.selected_images\00", align 1
@stderr = external global ptr, align 8
@.str.7 = private unnamed_addr constant [53 x i8] c"sqlite3 error: %s:%d, function %s(), query \22%s\22: %s\0A\00", align 1
@.str.8 = private unnamed_addr constant [33 x i8] c"DELETE FROM main.selected_images\00", align 1
@.str.10 = private unnamed_addr constant [33 x i8] c"DELETE FROM memory.tmp_selection\00", align 1
@__FUNCTION__.dt_selection_select_filmroll = private unnamed_addr constant [29 x i8] c"dt_selection_select_filmroll\00", align 1
@.str.17 = private unnamed_addr constant [226 x i8] c"INSERT OR IGNORE INTO main.selected_images (imgid)  SELECT id FROM main.images   WHERE film_id IN (SELECT film_id                     FROM main.images AS a                     JOIN memory.tmp_selection AS b ON a.id = b.imgid)\00", align 1
@.str.26 = private unnamed_addr constant [40 x i8] c"[signal] raise %s; %s:%d, function %s()\00", align 1
@.str.27 = private unnamed_addr constant [28 x i8] c"DT_SIGNAL_SELECTION_CHANGED\00", align 1
@__FUNCTION__._selection_raise_signal = private unnamed_addr constant [24 x i8] c"_selection_raise_signal\00", align 1

; Function Attrs: nounwind uwtable
define internal void @_selection_raise_signal() #0 {
  call void @dt_act_on_reset_cache(i32 noundef 1)
  call void @dt_act_on_reset_cache(i32 noundef 0)
  br label %1

1:                                                ; preds = %0
  %2 = load i32, ptr getelementptr inbounds nuw (%struct.darktable_t, ptr @darktable, i32 0, i32 53), align 8, !tbaa !55
  %3 = and i32 %2, 1
  %4 = icmp ne i32 %3, 0
  br i1 %4, label %5, label %21

5:                                                ; preds = %1
  %6 = load i32, ptr getelementptr inbounds ([47 x i32], ptr getelementptr inbounds nuw (%struct.darktable_t, ptr @darktable, i32 0, i32 54), i64 0, i64 8), align 4, !tbaa !56
  %7 = icmp ne i32 %6, 0
  br i1 %7, label %8, label %21

8:                                                ; preds = %5
  br label %9

9:                                                ; preds = %8
  %10 = load i32, ptr getelementptr inbounds nuw (%struct.darktable_t, ptr @darktable, i32 0, i32 2), align 8, !tbaa !57
  %11 = and i32 1048576, %10
  %12 = icmp ne i32 %11, 0
  br i1 %12, label %13, label %19

13:                                               ; preds = %9
  %14 = load i32, ptr getelementptr inbounds nuw (%struct.darktable_t, ptr @darktable, i32 0, i32 2), align 8, !tbaa !57
  %15 = xor i32 %14, -1
  %16 = and i32 0, %15
  %17 = icmp ne i32 %16, 0
  br i1 %17, label %19, label %18

18:                                               ; preds = %13
  call void (ptr, ...) @dt_print_ext(ptr noundef @.str.26, ptr noundef @.str.27, ptr noundef @.str.3, i32 noundef 48, ptr noundef @__FUNCTION__._selection_raise_signal)
  br label %19

19:                                               ; preds = %18, %13, %9
  br label %20

20:                                               ; preds = %19
  br label %21

21:                                               ; preds = %20, %5, %1
  %22 = load ptr, ptr getelementptr inbounds nuw (%struct.darktable_t, ptr @darktable, i32 0, i32 13), align 8, !tbaa !58
  call void (ptr, i32, ...) @dt_control_signal_raise(ptr noundef %22, i32 noundef 8)
  br label %23

23:                                               ; preds = %21
  ret void
}

; Function Attrs: nounwind uwtable
define void @dt_selection_select_filmroll(ptr noundef %0) #0 {
  %2 = alloca ptr, align 8
  %3 = alloca i32, align 4
  %4 = alloca i32, align 4
  %5 = alloca i32, align 4
  %6 = alloca i32, align 4
  %7 = alloca i32, align 4
  store ptr %0, ptr %2, align 8, !tbaa !6
  br label %8

8:                                                ; preds = %1
  br label %9

9:                                                ; preds = %8
  %10 = load i32, ptr getelementptr inbounds nuw (%struct.darktable_t, ptr @darktable, i32 0, i32 2), align 8, !tbaa !57
  %11 = and i32 256, %10
  %12 = icmp ne i32 %11, 0
  br i1 %12, label %13, label %19

13:                                               ; preds = %9
  %14 = load i32, ptr getelementptr inbounds nuw (%struct.darktable_t, ptr @darktable, i32 0, i32 2), align 8, !tbaa !57
  %15 = xor i32 %14, -1
  %16 = and i32 0, %15
  %17 = icmp ne i32 %16, 0
  br i1 %17, label %19, label %18

18:                                               ; preds = %13
  call void (ptr, ...) @dt_print_ext(ptr noundef @.str.5, ptr noundef @.str.3, i32 noundef 412, ptr noundef @__FUNCTION__.dt_selection_select_filmroll, ptr noundef @.str.10)
  br label %19

19:                                               ; preds = %18, %13, %9
  br label %20

20:                                               ; preds = %19
  call void @llvm.lifetime.start.p0(i64 4, ptr %3) #5
  %21 = load ptr, ptr getelementptr inbounds nuw (%struct.darktable_t, ptr @darktable, i32 0, i32 18), align 8, !tbaa !61
  %22 = call ptr @dt_database_get(ptr noundef %21)
  %23 = call i32 @sqlite3_exec(ptr noundef %22, ptr noundef @.str.10, ptr noundef null, ptr noundef null, ptr noundef null)
  store i32 %23, ptr %3, align 4, !tbaa !56
  %24 = load i32, ptr %3, align 4, !tbaa !56
  %25 = icmp ne i32 %24, 0
  br i1 %25, label %26, label %32

26:                                               ; preds = %20
  %27 = load ptr, ptr @stderr, align 8, !tbaa !62
  %28 = load ptr, ptr getelementptr inbounds nuw (%struct.darktable_t, ptr @darktable, i32 0, i32 18), align 8, !tbaa !61
  %29 = call ptr @dt_database_get(ptr noundef %28)
  %30 = call ptr @sqlite3_errmsg(ptr noundef %29)
  %31 = call i32 (ptr, ptr, ...) @fprintf(ptr noundef %27, ptr noundef @.str.7, ptr noundef @.str.3, i32 noundef 412, ptr noundef @__FUNCTION__.dt_selection_select_filmroll, ptr noundef @.str.10, ptr noundef %30) #5
  br label %32

32:                                               ; preds = %26, %20
  call void @llvm.lifetime.end.p0(i64 4, ptr %3) #5
  br label %33

33:                                               ; preds = %32
  br label %34

34:                                               ; preds = %33
  br label %35

35:                                               ; preds = %34
  %36 = load i32, ptr getelementptr inbounds nuw (%struct.darktable_t, ptr @darktable, i32 0, i32 2), align 8, !tbaa !57
  %37 = and i32 256, %36
  %38 = icmp ne i32 %37, 0
  br i1 %38, label %39, label %45

39:                                               ; preds = %35
  %40 = load i32, ptr getelementptr inbounds nuw (%struct.darktable_t, ptr @darktable, i32 0, i32 2), align 8, !tbaa !57
  %41 = xor i32 %40, -1
  %42 = and i32 0, %41
  %43 = icmp ne i32 %42, 0
  br i1 %43, label %45, label %44

44:                                               ; preds = %39
  call void (ptr, ...) @dt_print_ext(ptr noundef @.str.5, ptr noundef @.str.3, i32 noundef 416, ptr noundef @__FUNCTION__.dt_selection_select_filmroll, ptr noundef @.str.6)
  br label %45

45:                                               ; preds = %44, %39, %35
  br label %46

46:                                               ; preds = %45
  call void @llvm.lifetime.start.p0(i64 4, ptr %4) #5
  %47 = load ptr, ptr getelementptr inbounds nuw (%struct.darktable_t, ptr @darktable, i32 0, i32 18), align 8, !tbaa !61
  %48 = call ptr @dt_database_get(ptr noundef %47)
  %49 = call i32 @sqlite3_exec(ptr noundef %48, ptr noundef @.str.6, ptr noundef null, ptr noundef null, ptr noundef null)
  store i32 %49, ptr %4, align 4, !tbaa !56
  %50 = load i32, ptr %4, align 4, !tbaa !56
  %51 = icmp ne i32 %50, 0
  br i1 %51, label %52, label %58

52:                                               ; preds = %46
  %53 = load ptr, ptr @stderr, align 8, !tbaa !62
  %54 = load ptr, ptr getelementptr inbounds nuw (%struct.darktable_t, ptr @darktable, i32 0, i32 18), align 8, !tbaa !61
  %55 = call ptr @dt_database_get(ptr noundef %54)
  %56 = call ptr @sqlite3_errmsg(ptr noundef %55)
  %57 = call i32 (ptr, ptr, ...) @fprintf(ptr noundef %53, ptr noundef @.str.7, ptr noundef @.str.3, i32 noundef 416, ptr noundef @__FUNCTION__.dt_selection_select_filmroll, ptr noundef @.str.6, ptr noundef %56) #5
  br label %58

58:                                               ; preds = %52, %46
  call void @llvm.lifetime.end.p0(i64 4, ptr %4) #5
  br label %59

59:                                               ; preds = %58
  br label %60

60:                                               ; preds = %59
  br label %61

61:                                               ; preds = %60
  %62 = load i32, ptr getelementptr inbounds nuw (%struct.darktable_t, ptr @darktable, i32 0, i32 2), align 8, !tbaa !57
  %63 = and i32 256, %62
  %64 = icmp ne i32 %63, 0
  br i1 %64, label %65, label %71

65:                                               ; preds = %61
  %66 = load i32, ptr getelementptr inbounds nuw (%struct.darktable_t, ptr @darktable, i32 0, i32 2), align 8, !tbaa !57
  %67 = xor i32 %66, -1
  %68 = and i32 0, %67
  %69 = icmp ne i32 %68, 0
  br i1 %69, label %71, label %70

70:                                               ; preds = %65
  call void (ptr, ...) @dt_print_ext(ptr noundef @.str.5, ptr noundef @.str.3, i32 noundef 418, ptr noundef @__FUNCTION__.dt_selection_select_filmroll, ptr noundef @.str.8)
  br label %71

71:                                               ; preds = %70, %65, %61
  br label %72

72:                                               ; preds = %71
  call void @llvm.lifetime.start.p0(i64 4, ptr %5) #5
  %73 = load ptr, ptr getelementptr inbounds nuw (%struct.darktable_t, ptr @darktable, i32 0, i32 18), align 8, !tbaa !61
  %74 = call ptr @dt_database_get(ptr noundef %73)
  %75 = call i32 @sqlite3_exec(ptr noundef %74, ptr noundef @.str.8, ptr noundef null, ptr noundef null, ptr noundef null)
  store i32 %75, ptr %5, align 4, !tbaa !56
  %76 = load i32, ptr %5, align 4, !tbaa !56
  %77 = icmp ne i32 %76, 0
  br i1 %77, label %78, label %84

78:                                               ; preds = %72
  %79 = load ptr, ptr @stderr, align 8, !tbaa !62
  %80 = load ptr, ptr getelementptr inbounds nuw (%struct.darktable_t, ptr @darktable, i32 0, i32 18), align 8, !tbaa !61
  %81 = call ptr @dt_database_get(ptr noundef %80)
  %82 = call ptr @sqlite3_errmsg(ptr noundef %81)
  %83 = call i32 (ptr, ptr, ...) @fprintf(ptr noundef %79, ptr noundef @.str.7, ptr noundef @.str.3, i32 noundef 418, ptr noundef @__FUNCTION__.dt_selection_select_filmroll, ptr noundef @.str.8, ptr noundef %82) #5
  br label %84

84:                                               ; preds = %78, %72
  call void @llvm.lifetime.end.p0(i64 4, ptr %5) #5
  br label %85

85:                                               ; preds = %84
  br label %86

86:                                               ; preds = %85
  br label %87

87:                                               ; preds = %86
  %88 = load i32, ptr getelementptr inbounds nuw (%struct.darktable_t, ptr @darktable, i32 0, i32 2), align 8, !tbaa !57
  %89 = and i32 256, %88
  %90 = icmp ne i32 %89, 0
  br i1 %90, label %91, label %97

91:                                               ; preds = %87
  %92 = load i32, ptr getelementptr inbounds nuw (%struct.darktable_t, ptr @darktable, i32 0, i32 2), align 8, !tbaa !57
  %93 = xor i32 %92, -1
  %94 = and i32 0, %93
  %95 = icmp ne i32 %94, 0
  br i1 %95, label %97, label %96

96:                                               ; preds = %91
  call void (ptr, ...) @dt_print_ext(ptr noundef @.str.5, ptr noundef @.str.3, i32 noundef 426, ptr noundef @__FUNCTION__.dt_selection_select_filmroll, ptr noundef @.str.17)
  br label %97

97:                                               ; preds = %96, %91, %87
  br label %98

98:                                               ; preds = %97
  call void @llvm.lifetime.start.p0(i64 4, ptr %6) #5
  %99 = load ptr, ptr getelementptr inbounds nuw (%struct.darktable_t, ptr @darktable, i32 0, i32 18), align 8, !tbaa !61
  %100 = call ptr @dt_database_get(ptr noundef %99)
  %101 = call i32 @sqlite3_exec(ptr noundef %100, ptr noundef @.str.17, ptr noundef null, ptr noundef null, ptr noundef null)
  store i32 %101, ptr %6, align 4, !tbaa !56
  %102 = load i32, ptr %6, align 4, !tbaa !56
  %103 = icmp ne i32 %102, 0
  br i1 %103, label %104, label %110

104:                                              ; preds = %98
  %105 = load ptr, ptr @stderr, align 8, !tbaa !62
  %106 = load ptr, ptr getelementptr inbounds nuw (%struct.darktable_t, ptr @darktable, i32 0, i32 18), align 8, !tbaa !61
  %107 = call ptr @dt_database_get(ptr noundef %106)
  %108 = call ptr @sqlite3_errmsg(ptr noundef %107)
  %109 = call i32 (ptr, ptr, ...) @fprintf(ptr noundef %105, ptr noundef @.str.7, ptr noundef @.str.3, i32 noundef 426, ptr noundef @__FUNCTION__.dt_selection_select_filmroll, ptr noundef @.str.17, ptr noundef %108) #5
  br label %110

110:                                              ; preds = %104, %98
  call void @llvm.lifetime.end.p0(i64 4, ptr %6) #5
  br label %111

111:                                              ; preds = %110
  br label %112

112:                                              ; preds = %111
  br label %113

113:                                              ; preds = %112
  %114 = load i32, ptr getelementptr inbounds nuw (%struct.darktable_t, ptr @darktable, i32 0, i32 2), align 8, !tbaa !57
  %115 = and i32 256, %114
  %116 = icmp ne i32 %115, 0
  br i1 %116, label %117, label %123

117:                                              ; preds = %113
  %118 = load i32, ptr getelementptr inbounds nuw (%struct.darktable_t, ptr @darktable, i32 0, i32 2), align 8, !tbaa !57
  %119 = xor i32 %118, -1
  %120 = and i32 0, %119
  %121 = icmp ne i32 %120, 0
  br i1 %121, label %123, label %122

122:                                              ; preds = %117
  call void (ptr, ...) @dt_print_ext(ptr noundef @.str.5, ptr noundef @.str.3, i32 noundef 429, ptr noundef @__FUNCTION__.dt_selection_select_filmroll, ptr noundef @.str.10)
  br label %123

123:                                              ; preds = %122, %117, %113
  br label %124

124:                                              ; preds = %123
  call void @llvm.lifetime.start.p0(i64 4, ptr %7) #5
  %125 = load ptr, ptr getelementptr inbounds nuw (%struct.darktable_t, ptr @darktable, i32 0, i32 18), align 8, !tbaa !61
  %126 = call ptr @dt_database_get(ptr noundef %125)
  %127 = call i32 @sqlite3_exec(ptr noundef %126, ptr noundef @.str.10, ptr noundef null, ptr noundef null, ptr noundef null)
  store i32 %127, ptr %7, align 4, !tbaa !56
  %128 = load i32, ptr %7, align 4, !tbaa !56
  %129 = icmp ne i32 %128, 0
  br i1 %129, label %130, label %136

130:                                              ; preds = %124
  %131 = load ptr, ptr @stderr, align 8, !tbaa !62
  %132 = load ptr, ptr getelementptr inbounds nuw (%struct.darktable_t, ptr @darktable, i32 0, i32 18), align 8, !tbaa !61
  %133 = call ptr @dt_database_get(ptr noundef %132)
  %134 = call ptr @sqlite3_errmsg(ptr noundef %133)
  %135 = call i32 (ptr, ptr, ...) @fprintf(ptr noundef %131, ptr noundef @.str.7, ptr noundef @.str.3, i32 noundef 429, ptr noundef @__FUNCTION__.dt_selection_select_filmroll, ptr noundef @.str.10, ptr noundef %134) #5
  br label %136

136:                                              ; preds = %130, %124
  call void @llvm.lifetime.end.p0(i64 4, ptr %7) #5
  br label %137

137:                                              ; preds = %136
  %138 = load ptr, ptr %2, align 8, !tbaa !6
  %139 = getelementptr inbounds nuw %struct.dt_selection_t, ptr %138, i32 0, i32 0
  %140 = load ptr, ptr %139, align 8, !tbaa !11
  %141 = call i32 @dt_collection_update(ptr noundef %140)
  %142 = load ptr, ptr %2, align 8, !tbaa !6
  %143 = getelementptr inbounds nuw %struct.dt_selection_t, ptr %142, i32 0, i32 1
  store i32 0, ptr %143, align 8, !tbaa !15
  call void @_selection_raise_signal()
  %144 = load ptr, ptr getelementptr inbounds nuw (%struct.darktable_t, ptr @darktable, i32 0, i32 21), align 8, !tbaa !16
  call void @dt_collection_hint_message(ptr noundef %144)
  ret void
}