; Function Attrs: nounwind uwtable
define void @dt_selection_select_filmroll(ptr noundef captures(none) initializes((8, 12)) %0) local_unnamed_addr #1 {
  %2 = load i32, ptr getelementptr inbounds nuw (i8, ptr @darktable, i64 8), align 8, !tbaa !54
  %3 = and i32 %2, 256
  %.not = icmp eq i32 %3, 0
  br i1 %.not, label %5, label %4

4:                                                ; preds = %1
  tail call void (ptr, ...) @dt_print_ext(ptr noundef nonnull @.str.5, ptr noundef nonnull @.str.3, i32 noundef 412, ptr noundef nonnull @__FUNCTION__.dt_selection_select_filmroll, ptr noundef nonnull @.str.10) #8
  br label %5

5:                                                ; preds = %1, %4
  %6 = load ptr, ptr getelementptr inbounds nuw (i8, ptr @darktable, i64 136), align 8, !tbaa !56
  %7 = tail call ptr @dt_database_get(ptr noundef %6) #8
  %8 = tail call i32 @sqlite3_exec(ptr noundef %7, ptr noundef nonnull @.str.10, ptr noundef null, ptr noundef null, ptr noundef null) #8
  %.not6 = icmp eq i32 %8, 0
  br i1 %.not6, label %15, label %9

9:                                                ; preds = %5
  %10 = load ptr, ptr @stderr, align 8, !tbaa !57
  %11 = load ptr, ptr getelementptr inbounds nuw (i8, ptr @darktable, i64 136), align 8, !tbaa !56
  %12 = tail call ptr @dt_database_get(ptr noundef %11) #8
  %13 = tail call ptr @sqlite3_errmsg(ptr noundef %12) #8
  %14 = tail call i32 (ptr, ptr, ...) @fprintf(ptr noundef %10, ptr noundef nonnull @.str.7, ptr noundef nonnull @.str.3, i32 noundef 412, ptr noundef nonnull @__FUNCTION__.dt_selection_select_filmroll, ptr noundef nonnull @.str.10, ptr noundef %13) #9
  br label %15

15:                                               ; preds = %9, %5
  %16 = load i32, ptr getelementptr inbounds nuw (i8, ptr @darktable, i64 8), align 8, !tbaa !54
  %17 = and i32 %16, 256
  %.not7 = icmp eq i32 %17, 0
  br i1 %.not7, label %19, label %18

18:                                               ; preds = %15
  tail call void (ptr, ...) @dt_print_ext(ptr noundef nonnull @.str.5, ptr noundef nonnull @.str.3, i32 noundef 416, ptr noundef nonnull @__FUNCTION__.dt_selection_select_filmroll, ptr noundef nonnull @.str.6) #8
  br label %19

19:                                               ; preds = %15, %18
  %20 = load ptr, ptr getelementptr inbounds nuw (i8, ptr @darktable, i64 136), align 8, !tbaa !56
  %21 = tail call ptr @dt_database_get(ptr noundef %20) #8
  %22 = tail call i32 @sqlite3_exec(ptr noundef %21, ptr noundef nonnull @.str.6, ptr noundef null, ptr noundef null, ptr noundef null) #8
  %.not8 = icmp eq i32 %22, 0
  br i1 %.not8, label %29, label %23

23:                                               ; preds = %19
  %24 = load ptr, ptr @stderr, align 8, !tbaa !57
  %25 = load ptr, ptr getelementptr inbounds nuw (i8, ptr @darktable, i64 136), align 8, !tbaa !56
  %26 = tail call ptr @dt_database_get(ptr noundef %25) #8
  %27 = tail call ptr @sqlite3_errmsg(ptr noundef %26) #8
  %28 = tail call i32 (ptr, ptr, ...) @fprintf(ptr noundef %24, ptr noundef nonnull @.str.7, ptr noundef nonnull @.str.3, i32 noundef 416, ptr noundef nonnull @__FUNCTION__.dt_selection_select_filmroll, ptr noundef nonnull @.str.6, ptr noundef %27) #9
  br label %29

29:                                               ; preds = %23, %19
  %30 = load i32, ptr getelementptr inbounds nuw (i8, ptr @darktable, i64 8), align 8, !tbaa !54
  %31 = and i32 %30, 256
  %.not9 = icmp eq i32 %31, 0
  br i1 %.not9, label %33, label %32

32:                                               ; preds = %29
  tail call void (ptr, ...) @dt_print_ext(ptr noundef nonnull @.str.5, ptr noundef nonnull @.str.3, i32 noundef 418, ptr noundef nonnull @__FUNCTION__.dt_selection_select_filmroll, ptr noundef nonnull @.str.8) #8
  br label %33

33:                                               ; preds = %29, %32
  %34 = load ptr, ptr getelementptr inbounds nuw (i8, ptr @darktable, i64 136), align 8, !tbaa !56
  %35 = tail call ptr @dt_database_get(ptr noundef %34) #8
  %36 = tail call i32 @sqlite3_exec(ptr noundef %35, ptr noundef nonnull @.str.8, ptr noundef null, ptr noundef null, ptr noundef null) #8
  %.not10 = icmp eq i32 %36, 0
  br i1 %.not10, label %43, label %37

37:                                               ; preds = %33
  %38 = load ptr, ptr @stderr, align 8, !tbaa !57
  %39 = load ptr, ptr getelementptr inbounds nuw (i8, ptr @darktable, i64 136), align 8, !tbaa !56
  %40 = tail call ptr @dt_database_get(ptr noundef %39) #8
  %41 = tail call ptr @sqlite3_errmsg(ptr noundef %40) #8
  %42 = tail call i32 (ptr, ptr, ...) @fprintf(ptr noundef %38, ptr noundef nonnull @.str.7, ptr noundef nonnull @.str.3, i32 noundef 418, ptr noundef nonnull @__FUNCTION__.dt_selection_select_filmroll, ptr noundef nonnull @.str.8, ptr noundef %41) #9
  br label %43

43:                                               ; preds = %37, %33
  %44 = load i32, ptr getelementptr inbounds nuw (i8, ptr @darktable, i64 8), align 8, !tbaa !54
  %45 = and i32 %44, 256
  %.not11 = icmp eq i32 %45, 0
  br i1 %.not11, label %47, label %46

46:                                               ; preds = %43
  tail call void (ptr, ...) @dt_print_ext(ptr noundef nonnull @.str.5, ptr noundef nonnull @.str.3, i32 noundef 426, ptr noundef nonnull @__FUNCTION__.dt_selection_select_filmroll, ptr noundef nonnull @.str.17) #8
  br label %47

47:                                               ; preds = %43, %46
  %48 = load ptr, ptr getelementptr inbounds nuw (i8, ptr @darktable, i64 136), align 8, !tbaa !56
  %49 = tail call ptr @dt_database_get(ptr noundef %48) #8
  %50 = tail call i32 @sqlite3_exec(ptr noundef %49, ptr noundef nonnull @.str.17, ptr noundef null, ptr noundef null, ptr noundef null) #8
  %.not12 = icmp eq i32 %50, 0
  br i1 %.not12, label %57, label %51

51:                                               ; preds = %47
  %52 = load ptr, ptr @stderr, align 8, !tbaa !57
  %53 = load ptr, ptr getelementptr inbounds nuw (i8, ptr @darktable, i64 136), align 8, !tbaa !56
  %54 = tail call ptr @dt_database_get(ptr noundef %53) #8
  %55 = tail call ptr @sqlite3_errmsg(ptr noundef %54) #8
  %56 = tail call i32 (ptr, ptr, ...) @fprintf(ptr noundef %52, ptr noundef nonnull @.str.7, ptr noundef nonnull @.str.3, i32 noundef 426, ptr noundef nonnull @__FUNCTION__.dt_selection_select_filmroll, ptr noundef nonnull @.str.17, ptr noundef %55) #9
  br label %57

57:                                               ; preds = %51, %47
  %58 = load i32, ptr getelementptr inbounds nuw (i8, ptr @darktable, i64 8), align 8, !tbaa !54
  %59 = and i32 %58, 256
  %.not13 = icmp eq i32 %59, 0
  br i1 %.not13, label %61, label %60

60:                                               ; preds = %57
  tail call void (ptr, ...) @dt_print_ext(ptr noundef nonnull @.str.5, ptr noundef nonnull @.str.3, i32 noundef 429, ptr noundef nonnull @__FUNCTION__.dt_selection_select_filmroll, ptr noundef nonnull @.str.10) #8
  br label %61

61:                                               ; preds = %57, %60
  %62 = load ptr, ptr getelementptr inbounds nuw (i8, ptr @darktable, i64 136), align 8, !tbaa !56
  %63 = tail call ptr @dt_database_get(ptr noundef %62) #8
  %64 = tail call i32 @sqlite3_exec(ptr noundef %63, ptr noundef nonnull @.str.10, ptr noundef null, ptr noundef null, ptr noundef null) #8
  %.not14 = icmp eq i32 %64, 0
  br i1 %.not14, label %71, label %65

65:                                               ; preds = %61
  %66 = load ptr, ptr @stderr, align 8, !tbaa !57
  %67 = load ptr, ptr getelementptr inbounds nuw (i8, ptr @darktable, i64 136), align 8, !tbaa !56
  %68 = tail call ptr @dt_database_get(ptr noundef %67) #8
  %69 = tail call ptr @sqlite3_errmsg(ptr noundef %68) #8
  %70 = tail call i32 (ptr, ptr, ...) @fprintf(ptr noundef %66, ptr noundef nonnull @.str.7, ptr noundef nonnull @.str.3, i32 noundef 429, ptr noundef nonnull @__FUNCTION__.dt_selection_select_filmroll, ptr noundef nonnull @.str.10, ptr noundef %69) #9
  br label %71

71:                                               ; preds = %65, %61
  %72 = load ptr, ptr %0, align 8, !tbaa !6
  %73 = tail call i32 @dt_collection_update(ptr noundef %72) #8
  %74 = getelementptr inbounds nuw i8, ptr %0, i64 8
  store i32 0, ptr %74, align 8, !tbaa !50
  tail call void @dt_act_on_reset_cache(i32 noundef 1) #8
  tail call void @dt_act_on_reset_cache(i32 noundef 0) #8
  %75 = load i32, ptr getelementptr inbounds nuw (i8, ptr @darktable, i64 3128), align 8, !tbaa !53
  %76 = and i32 %75, 1
  %77 = icmp ne i32 %76, 0
  %78 = load i32, ptr getelementptr inbounds nuw (i8, ptr @darktable, i64 3164), align 4
  %79 = icmp ne i32 %78, 0
  %or.cond.i = select i1 %77, i1 %79, i1 false
  br i1 %or.cond.i, label %80, label %_selection_raise_signal.exit

80:                                               ; preds = %71
  %81 = load i32, ptr getelementptr inbounds nuw (i8, ptr @darktable, i64 8), align 8, !tbaa !54
  %82 = and i32 %81, 1048576
  %.not.i = icmp eq i32 %82, 0
  br i1 %.not.i, label %_selection_raise_signal.exit, label %83

83:                                               ; preds = %80
  tail call void (ptr, ...) @dt_print_ext(ptr noundef nonnull @.str.26, ptr noundef nonnull @.str.27, ptr noundef nonnull @.str.3, i32 noundef 48, ptr noundef nonnull @__FUNCTION__._selection_raise_signal) #8
  br label %_selection_raise_signal.exit

_selection_raise_signal.exit:                     ; preds = %71, %80, %83
  %84 = load ptr, ptr getelementptr inbounds nuw (i8, ptr @darktable, i64 96), align 8, !tbaa !55
  tail call void (ptr, i32, ...) @dt_control_signal_raise(ptr noundef %84, i32 noundef 8) #8
  %85 = load ptr, ptr getelementptr inbounds nuw (i8, ptr @darktable, i64 160), align 8, !tbaa !13
  tail call void @dt_collection_hint_message(ptr noundef %85) #8
  ret void
}